TN:
SF:/home/ezio/sprint5/Test/testpencils_autogen/include/tst_test.moc
FN:88,_ZN5_Test18qt_static_metacallEP7QObjectN11QMetaObject4CallEiPPv
FN:114,_ZNK5_Test10metaObjectEv
FN:119,_ZN5_Test11qt_metacastEPKc
FN:127,_ZN5_Test11qt_metacallEN11QMetaObject4CallEiPPv
FN:143,_GLOBAL__sub_I_tst_test.cpp
FN:143,_Z41__static_initialization_and_destruction_0ii
FNDA:8,_ZN5_Test18qt_static_metacallEP7QObjectN11QMetaObject4CallEiPPv
FNDA:16,_ZNK5_Test10metaObjectEv
FNDA:0,_ZN5_Test11qt_metacastEPKc
FNDA:0,_ZN5_Test11qt_metacallEN11QMetaObject4CallEiPPv
FNDA:1,_GLOBAL__sub_I_tst_test.cpp
FNDA:1,_Z41__static_initialization_and_destruction_0ii
FNF:6
FNH:4
DA:88,8
DA:90,8
DA:91,8
DA:93,8
DA:94,1
DA:95,1
DA:96,1
DA:97,1
DA:98,1
DA:99,1
DA:100,1
DA:101,1
DA:102,8
DA:106,8
DA:114,16
DA:116,16
DA:119,0
DA:121,0
DA:122,0
DA:123,0
DA:124,0
DA:127,0
DA:129,0
DA:130,0
DA:131,0
DA:132,0
DA:133,0
DA:134,0
DA:135,0
DA:136,0
DA:137,0
DA:138,0
DA:139,0
DA:141,0
DA:143,3
LF:35
LH:17
end_of_record
SF:/home/ezio/sprint5/Test/tst_test.cpp
FN:35,_ZN5_TestC2Ev
FN:36,_ZN5_TestD2Ev
FN:36,_ZN5_TestD0Ev
FN:38,_ZN5_Test19changingPencilPriceEv
FN:64,_ZN5_Test11sellPencilsEv
FN:89,_ZN5_Test10testWalletEv
FN:115,_ZN5_Test7testAPMEv
FN:169,_ZN5_Test14testupgradeAPMEv
FN:207,_ZN5_Test16testIntelligenceEv
FN:233,_ZN5_Test13testMarketingEv
FN:263,_ZN5_Test13testMaterialsEv
FN:305,main
FNDA:1,_ZN5_TestC2Ev
FNDA:0,_ZN5_TestD0Ev
FNDA:1,_ZN5_TestD2Ev
FNDA:1,_ZN5_Test19changingPencilPriceEv
FNDA:1,_ZN5_Test11sellPencilsEv
FNDA:1,_ZN5_Test10testWalletEv
FNDA:1,_ZN5_Test7testAPMEv
FNDA:1,_ZN5_Test14testupgradeAPMEv
FNDA:1,_ZN5_Test16testIntelligenceEv
FNDA:1,_ZN5_Test13testMarketingEv
FNDA:1,_ZN5_Test13testMaterialsEv
FNDA:1,main
FNF:12
FNH:11
DA:35,1
DA:36,1
DA:38,1
DA:40,1
DA:41,101
DA:42,100
DA:45,220
DA:46,219
DA:51,1
DA:53,1
DA:54,1
DA:56,1
DA:57,1
DA:64,1
DA:66,1
DA:67,1
DA:68,1
DA:69,1
DA:71,1
DA:72,1
DA:73,1
DA:75,4
DA:77,3
DA:79,1
DA:81,1
DA:82,1
DA:89,1
DA:91,1
DA:93,1
DA:95,1
DA:97,1
DA:98,1
DA:101,1
DA:102,1
DA:103,1
DA:104,1
DA:107,1
DA:108,1
DA:115,1
DA:117,1
DA:118,1
DA:119,1
DA:120,1
DA:121,1
DA:124,1
DA:126,1
DA:127,1
DA:129,1
DA:130,1
DA:131,1
DA:132,1
DA:135,1
DA:137,1
DA:140,13
DA:142,12
DA:144,1
DA:146,1
DA:147,1
DA:148,1
DA:149,1
DA:151,1
DA:152,1
DA:153,1
DA:154,1
DA:155,1
DA:156,1
DA:157,1
DA:159,1
DA:160,1
DA:161,1
DA:162,1
DA:169,1
DA:171,1
DA:172,1
DA:173,1
DA:174,1
DA:175,1
DA:177,1
DA:178,1
DA:179,1
DA:180,1
DA:183,1
DA:185,1
DA:188,1
DA:189,1
DA:191,1
DA:192,1
DA:193,1
DA:194,1
DA:195,1
DA:197,1
DA:198,1
DA:200,1
DA:207,1
DA:209,1
DA:210,1
DA:211,1
DA:212,1
DA:213,1
DA:215,1
DA:216,1
DA:217,1
DA:218,1
DA:219,1
DA:220,1
DA:222,1
DA:223,1
DA:225,1
DA:226,1
DA:233,1
DA:235,1
DA:236,1
DA:237,1
DA:238,1
DA:239,1
DA:241,1
DA:242,1
DA:244,1
DA:245,1
DA:246,1
DA:247,1
DA:249,1
DA:250,1
DA:252,1
DA:253,1
DA:255,1
DA:256,1
DA:263,1
DA:265,1
DA:266,1
DA:267,1
DA:268,1
DA:270,1001
DA:272,1000
DA:273,1000
DA:276,1000
DA:277,1000
DA:279,1000
DA:280,1000
DA:284,1
DA:285,1
DA:286,1
DA:288,1
DA:289,1
DA:291,1
DA:292,1
DA:293,1
DA:295,1
DA:296,1
DA:298,1
DA:299,1
DA:300,1
DA:301,1
DA:305,1
LF:154
LH:154
end_of_record
SF:/usr/include/c++/7/iostream
DA:74,1
LF:1
LH:1
end_of_record
SF:/usr/include/x86_64-linux-gnu/qt5/QtCore/qscopedpointer.h
FN:116,_ZNK14QScopedPointerI11QObjectData21QScopedPointerDeleterIS0_EEptEv
FNDA:16,_ZNK14QScopedPointerI11QObjectData21QScopedPointerDeleterIS0_EEptEv
FNF:1
FNH:1
DA:116,16
DA:118,16
LF:2
LH:2
end_of_record
SF:/usr/include/x86_64-linux-gnu/qt5/QtTest/qtestcase.h
FN:323,_ZN5QTest8qCompareIiEEbRKT_S3_PKcS5_S5_i
FN:323,_ZN5QTest8qCompareIbEEbRKT_S3_PKcS5_S5_i
FN:387,_ZN5QTest8qCompareERKfRKdPKcS5_S5_i
FNDA:1,_ZN5QTest8qCompareIbEEbRKT_S3_PKcS5_S5_i
FNDA:13,_ZN5QTest8qCompareIiEEbRKT_S3_PKcS5_S5_i
FNDA:11,_ZN5QTest8qCompareERKfRKdPKcS5_S5_i
FNF:3
FNH:3
DA:323,14
DA:326,14
DA:327,14
DA:387,11
DA:390,11
LF:5
LH:5
end_of_record
TN:
SF:/home/ezio/sprint5/Pencil-Producer/material_inventory.cpp
FN:8,_ZN18Material_InventoryC2Eff
FN:23,_ZN18Material_Inventory3buyER6Wallet
FN:38,_ZNK18Material_Inventory6canBuyER6Wallet
FN:48,_ZNK18Material_Inventory8getPriceEv
FN:56,_ZN18Material_Inventory8setPriceEv
FN:65,_ZNK18Material_Inventory9getAmountEv
FN:74,_ZN18Material_Inventory9setAmountEf
FN:85,_ZN18Material_Inventory7consumeEf
FN:98,_ZNK18Material_Inventory10canConsumeEf
FN:107,_ZN18Material_Inventory11setMaterialEi
FNDA:156,_ZN18Material_InventoryC2Eff
FNDA:52,_ZN18Material_Inventory3buyER6Wallet
FNDA:52,_ZNK18Material_Inventory6canBuyER6Wallet
FNDA:52000,_ZNK18Material_Inventory8getPriceEv
FNDA:26156,_ZN18Material_Inventory8setPriceEv
FNDA:56,_ZNK18Material_Inventory9getAmountEv
FNDA:2,_ZN18Material_Inventory9setAmountEf
FNDA:38,_ZN18Material_Inventory7consumeEf
FNDA:88,_ZNK18Material_Inventory10canConsumeEf
FNDA:2,_ZN18Material_Inventory11setMaterialEi
FNF:10
FNH:10
DA:8,156
DA:10,156
DA:11,156
DA:12,156
DA:13,156
DA:14,156
DA:15,156
DA:23,52
DA:25,52
DA:27,26
DA:28,26
DA:30,52
DA:38,52
DA:40,52
DA:41,52
DA:48,52000
DA:50,52000
DA:56,26156
DA:58,26156
DA:59,26156
DA:65,56
DA:67,56
DA:74,2
DA:75,2
DA:76,2
DA:85,38
DA:87,38
DA:89,38
DA:91,38
DA:98,88
DA:100,88
DA:107,2
DA:109,2
DA:110,2
LF:34
LH:34
end_of_record
TN:
SF:/home/ezio/sprint5/Pencil-Producer/wood_inventory.cpp
FN:3,_ZN14Wood_InventoryC2Ev
FNDA:78,_ZN14Wood_InventoryC2Ev
FNF:1
FNH:1
DA:3,78
DA:6,78
LF:2
LH:2
end_of_record
TN:
SF:/home/ezio/sprint5/Pencil-Producer/apm2000_inventory.cpp
FN:10,_ZN17APM2000_InventoryC2Ev
FN:22,_ZN17APM2000_Inventory10buyAPM2000ER6Wallet
FN:39,_ZN17APM2000_Inventory13canBuyAPM2000ER6Wallet
FN:48,_ZN17APM2000_Inventory13producePencilER16Pencil_InventoryR18Graphite_InventoryR14Wood_Inventory
FN:63,_ZN17APM2000_Inventory16canProducePencilER16Pencil_InventoryR18Graphite_InventoryR14Wood_Inventory
FN:74,_ZNK17APM2000_Inventory9getNumberEv
FN:83,_ZNK17APM2000_Inventory8getPriceEv
FN:92,_ZNK17APM2000_Inventory7getRateEv
FN:101,_ZNK17APM2000_Inventory10getAPMRateEv
FN:110,_ZNK17APM2000_Inventory20getIntelligencePriceEv
FN:119,_ZNK17APM2000_Inventory10getVersionEv
FN:127,_ZN17APM2000_Inventory9setNumberEf
FN:135,_ZN17APM2000_Inventory8setPriceEf
FN:143,_ZN17APM2000_Inventory20setIntelligencePriceEf
FN:151,_ZN17APM2000_Inventory10setAPMRateEf
FN:159,_ZN17APM2000_Inventory10setVersionEf
FN:171,_ZN17APM2000_Inventory18FirstCanUpgradeAPMER16Pencil_Inventory
FN:182,_ZN17APM2000_Inventory19SecondCanUpgradeAPMER16Pencil_Inventory
FN:192,_ZN17APM2000_Inventory15FirstUpgradeAPMER16Pencil_Inventory
FN:210,_ZN17APM2000_Inventory16SecondUpgradeAPMER16Pencil_Inventory
FN:221,_GLOBAL__sub_I_apm2000_inventory.cpp
FN:221,_Z41__static_initialization_and_destruction_0ii
FNDA:52,_ZN17APM2000_InventoryC2Ev
FNDA:195,_ZN17APM2000_Inventory10buyAPM2000ER6Wallet
FNDA:195,_ZN17APM2000_Inventory13canBuyAPM2000ER6Wallet
FNDA:6,_ZN17APM2000_Inventory13producePencilER16Pencil_InventoryR18Graphite_InventoryR14Wood_Inventory
FNDA:6,_ZN17APM2000_Inventory16canProducePencilER16Pencil_InventoryR18Graphite_InventoryR14Wood_Inventory
FNDA:52,_ZNK17APM2000_Inventory9getNumberEv
FNDA:55,_ZNK17APM2000_Inventory8getPriceEv
FNDA:26,_ZNK17APM2000_Inventory7getRateEv
FNDA:4,_ZNK17APM2000_Inventory10getAPMRateEv
FNDA:7,_ZNK17APM2000_Inventory20getIntelligencePriceEv
FNDA:4,_ZNK17APM2000_Inventory10getVersionEv
FNDA:5,_ZN17APM2000_Inventory9setNumberEf
FNDA:3,_ZN17APM2000_Inventory8setPriceEf
FNDA:3,_ZN17APM2000_Inventory20setIntelligencePriceEf
FNDA:4,_ZN17APM2000_Inventory10setAPMRateEf
FNDA:4,_ZN17APM2000_Inventory10setVersionEf
FNDA:26,_ZN17APM2000_Inventory18FirstCanUpgradeAPMER16Pencil_Inventory
FNDA:16,_ZN17APM2000_Inventory19SecondCanUpgradeAPMER16Pencil_Inventory
FNDA:26,_ZN17APM2000_Inventory15FirstUpgradeAPMER16Pencil_Inventory
FNDA:4,_ZN17APM2000_Inventory16SecondUpgradeAPMER16Pencil_Inventory
FNDA:13,_GLOBAL__sub_I_apm2000_inventory.cpp
FNDA:13,_Z41__static_initialization_and_destruction_0ii
FNF:22
FNH:22
DA:10,52
DA:12,52
DA:13,52
DA:14,52
DA:22,195
DA:24,195
DA:26,143
DA:27,143
DA:28,143
DA:30,195
DA:39,195
DA:41,195
DA:48,6
DA:52,6
DA:53,6
DA:55,6
DA:63,6
DA:67,6
DA:74,52
DA:76,52
DA:83,55
DA:85,55
DA:92,26
DA:94,26
DA:101,4
DA:103,4
DA:110,7
DA:112,7
DA:119,4
DA:120,4
DA:127,5
DA:128,5
DA:129,5
DA:135,3
DA:136,3
DA:137,3
DA:143,3
DA:144,3
DA:145,3
DA:151,4
DA:152,4
DA:153,4
DA:159,4
DA:160,4
DA:161,4
DA:171,26
DA:173,26
DA:182,16
DA:184,16
DA:192,26
DA:194,26
DA:195,13
DA:196,13
DA:197,13
DA:198,13
DA:199,13
DA:200,13
DA:201,13
DA:203,26
DA:210,4
DA:212,4
DA:213,4
DA:214,4
DA:215,4
DA:216,4
DA:217,4
DA:218,4
DA:219,4
DA:221,43
LF:69
LH:69
end_of_record
SF:/usr/include/c++/7/iostream
DA:74,13
LF:1
LH:1
end_of_record
TN:
SF:/home/ezio/sprint5/Pencil-Producer/pencil_inventory.cpp
FN:11,_ZN16Pencil_InventoryC2Ev
FN:22,_ZNK16Pencil_Inventory8getPriceEv
FN:31,_ZNK16Pencil_Inventory9getAmountEv
FN:40,_ZNK16Pencil_Inventory15getPublicDemandEv
FN:49,_ZNK16Pencil_Inventory31getTotalNumberOfPencilsProducedEv
FN:58,_ZNK16Pencil_Inventory26getNumberOfPencilsToBeSoldEv
FN:67,_ZNK16Pencil_Inventory15getIntelligenceEv
FN:77,_ZN16Pencil_Inventory8setPriceEf
FN:85,_ZN16Pencil_Inventory9setAmountEf
FN:93,_ZN16Pencil_Inventory31setTotalNumberOfPencilsProducedEf
FN:101,_ZN16Pencil_Inventory4setMEf
FN:109,_ZN16Pencil_Inventory17setMarketingPriceEf
FN:117,_ZN16Pencil_Inventory13increasePriceEv
FN:126,_ZN16Pencil_Inventory13decreasePriceEv
FN:139,_ZNK16Pencil_Inventory16canDecreasePriceEv
FN:152,_ZN16Pencil_Inventory10sellPencilER6Walleti
FN:166,_ZNK16Pencil_Inventory13canSellPencilEi
FN:180,_ZN16Pencil_Inventory13producePencilER18Graphite_InventoryR14Wood_Inventoryf
FN:198,_ZNK16Pencil_Inventory16canProducePencilER18Graphite_InventoryR14Wood_Inventoryf
FN:208,_ZN16Pencil_Inventory9setPencilEii
FN:217,_ZN16Pencil_Inventory18changeIntelligenceEv
FN:228,_ZN16Pencil_Inventory17checkIntelligenceEi
FN:243,_ZN16Pencil_Inventory15setIntelligenceEi
FN:257,_ZN16Pencil_Inventory17increasemarketingEi
FN:270,_ZN16Pencil_Inventory20increaseIntelligenceEi
FN:283,_ZNK16Pencil_Inventory4getMEv
FN:291,_ZN16Pencil_Inventory17getMarketingPriceEv
FN:303,_ZN16Pencil_Inventory16UpgradeMarketingER6Wallet
FN:309,_Z41__static_initialization_and_destruction_0ii
FN:309,_GLOBAL__sub_I_pencil_inventory.cpp
FNDA:91,_ZN16Pencil_InventoryC2Ev
FNDA:21,_ZNK16Pencil_Inventory8getPriceEv
FNDA:26,_ZNK16Pencil_Inventory9getAmountEv
FNDA:12,_ZNK16Pencil_Inventory15getPublicDemandEv
FNDA:55,_ZNK16Pencil_Inventory31getTotalNumberOfPencilsProducedEv
FNDA:12,_ZNK16Pencil_Inventory26getNumberOfPencilsToBeSoldEv
FNDA:80,_ZNK16Pencil_Inventory15getIntelligenceEv
FNDA:8,_ZN16Pencil_Inventory8setPriceEf
FNDA:13,_ZN16Pencil_Inventory9setAmountEf
FNDA:16,_ZN16Pencil_Inventory31setTotalNumberOfPencilsProducedEf
FNDA:10,_ZN16Pencil_Inventory4setMEf
FNDA:10,_ZN16Pencil_Inventory17setMarketingPriceEf
FNDA:1300,_ZN16Pencil_Inventory13increasePriceEv
FNDA:2847,_ZN16Pencil_Inventory13decreasePriceEv
FNDA:2847,_ZNK16Pencil_Inventory16canDecreasePriceEv
FNDA:39,_ZN16Pencil_Inventory10sellPencilER6Walleti
FNDA:39,_ZNK16Pencil_Inventory13canSellPencilEi
FNDA:19,_ZN16Pencil_Inventory13producePencilER18Graphite_InventoryR14Wood_Inventoryf
FNDA:25,_ZNK16Pencil_Inventory16canProducePencilER18Graphite_InventoryR14Wood_Inventoryf
FNDA:39,_ZN16Pencil_Inventory9setPencilEii
FNDA:26,_ZN16Pencil_Inventory18changeIntelligenceEv
FNDA:26,_ZN16Pencil_Inventory17checkIntelligenceEi
FNDA:43,_ZN16Pencil_Inventory15setIntelligenceEi
FNDA:11,_ZN16Pencil_Inventory17increasemarketingEi
FNDA:11,_ZN16Pencil_Inventory20increaseIntelligenceEi
FNDA:47,_ZNK16Pencil_Inventory4getMEv
FNDA:23,_ZN16Pencil_Inventory17getMarketingPriceEv
FNDA:26,_ZN16Pencil_Inventory16UpgradeMarketingER6Wallet
FNDA:13,_GLOBAL__sub_I_pencil_inventory.cpp
FNDA:13,_Z41__static_initialization_and_destruction_0ii
FNF:30
FNH:30
DA:11,91
DA:13,91
DA:14,91
DA:15,91
DA:16,91
DA:22,21
DA:24,21
DA:31,26
DA:33,26
DA:40,12
DA:42,12
DA:49,55
DA:51,55
DA:58,12
DA:60,12
DA:67,80
DA:69,80
DA:77,8
DA:78,8
DA:79,8
DA:85,13
DA:86,13
DA:87,13
DA:93,16
DA:94,16
DA:95,16
DA:101,10
DA:102,10
DA:103,10
DA:109,10
DA:110,10
DA:111,10
DA:117,1300
DA:119,1300
DA:120,1300
DA:126,2847
DA:128,2847
DA:130,1547
DA:132,2847
DA:139,2847
DA:141,2847
DA:152,39
DA:154,39
DA:156,39
DA:157,39
DA:159,39
DA:166,39
DA:168,39
DA:180,19
DA:182,19
DA:184,19
DA:185,19
DA:186,19
DA:187,19
DA:189,19
DA:198,25
DA:200,25
DA:208,39
DA:210,39
DA:211,39
DA:212,39
DA:217,26
DA:219,26
DA:220,13
DA:221,26
DA:228,26
DA:230,26
DA:231,13
DA:234,13
DA:243,43
DA:244,43
DA:245,0
DA:248,43
DA:251,43
DA:257,11
DA:259,11
DA:260,11
DA:261,0
DA:264,11
DA:270,11
DA:272,11
DA:273,11
DA:274,11
DA:276,11
DA:283,47
DA:284,47
DA:291,23
DA:293,23
DA:303,26
DA:304,26
DA:305,13
DA:306,13
DA:307,13
DA:309,65
LF:94
LH:92
end_of_record
SF:/usr/include/c++/7/bits/stl_algobase.h
FN:195,_ZSt3minIiERKT_S2_S2_
FNDA:12,_ZSt3minIiERKT_S2_S2_
FNF:1
FNH:1
DA:195,12
DA:200,12
DA:201,0
DA:202,12
LF:4
LH:3
end_of_record
SF:/usr/include/c++/7/cmath
FN:260,_ZSt5floorf
FN:388,_ZSt3powff
FN:1771,_ZSt5roundf
FNDA:12,_ZSt5floorf
FNDA:12,_ZSt3powff
FNDA:12,_ZSt5roundf
FNF:3
FNH:3
DA:260,12
DA:261,12
DA:388,12
DA:389,12
DA:1771,12
DA:1772,12
LF:6
LH:6
end_of_record
SF:/usr/include/c++/7/iostream
DA:74,13
LF:1
LH:1
end_of_record
TN:
SF:/home/ezio/sprint5/Pencil-Producer/wallet.cpp
FN:7,_ZN6WalletC2Ev
FN:15,_ZNK6Wallet14getBankBalanceEv
FN:24,_ZN6Wallet14setBankBalanceEf
FN:33,_ZN6Wallet11creditMoneyEf
FN:45,_ZN6Wallet10debitMoneyEf
FN:58,_ZNK6Wallet14canCreditMoneyEf
FN:69,_ZNK6Wallet13canDebitMoneyEf
FNDA:91,_ZN6WalletC2Ev
FNDA:118,_ZNK6Wallet14getBankBalanceEv
FNDA:1,_ZN6Wallet14setBankBalanceEf
FNDA:117,_ZN6Wallet11creditMoneyEf
FNDA:247,_ZN6Wallet10debitMoneyEf
FNDA:117,_ZNK6Wallet14canCreditMoneyEf
FNDA:429,_ZNK6Wallet13canDebitMoneyEf
FNF:7
FNH:7
DA:7,91
DA:8,91
DA:9,91
DA:15,118
DA:17,118
DA:24,1
DA:25,1
DA:26,1
DA:33,117
DA:35,117
DA:37,104
DA:39,117
DA:45,247
DA:47,247
DA:49,221
DA:51,247
DA:58,117
DA:60,117
DA:69,429
DA:71,429
LF:20
LH:20
end_of_record
TN:
SF:/home/ezio/sprint5/Pencil-Producer/graphite_inventory.cpp
FN:3,_ZN18Graphite_InventoryC2Ev
FNDA:78,_ZN18Graphite_InventoryC2Ev
FNF:1
FNH:1
DA:3,78
DA:6,78
LF:2
LH:2
end_of_record
